; Function Attrs: nounwind uwtable
define i32 @Aig_ManSizeOfGlobalBdds(ptr noundef readonly captures(none) %0) local_unnamed_addr #0 {
  %2 = getelementptr i8, ptr %0, i64 140
  %.val14 = load i32, ptr %2, align 4, !tbaa !14
  %3 = tail call noalias dereferenceable_or_null(16) ptr @malloc(i64 noundef 16) #9
  %4 = add i32 %.val14, -1
  %or.cond.i = icmp ult i32 %4, 7
  %spec.store.select.i = select i1 %or.cond.i, i32 8, i32 %.val14
  %5 = getelementptr inbounds nuw i8, ptr %3, i64 4
  store i32 0, ptr %5, align 4, !tbaa !27
  store i32 %spec.store.select.i, ptr %3, align 8, !tbaa !33
  %.not.i = icmp eq i32 %spec.store.select.i, 0
  br i1 %.not.i, label %Vec_PtrAlloc.exit, label %6

6:                                                ; preds = %1
  %7 = sext i32 %spec.store.select.i to i64
  %8 = shl nsw i64 %7, 3
  %9 = tail call noalias ptr @malloc(i64 noundef %8) #9
  br label %Vec_PtrAlloc.exit

Vec_PtrAlloc.exit:                                ; preds = %1, %6
  %10 = phi ptr [ %9, %6 ], [ null, %1 ]
  %11 = getelementptr inbounds nuw i8, ptr %3, i64 8
  store ptr %10, ptr %11, align 8, !tbaa !29
  %12 = getelementptr inbounds nuw i8, ptr %0, i64 24
  %13 = load ptr, ptr %12, align 8, !tbaa !34
  %14 = getelementptr i8, ptr %13, i64 4
  %.val1217 = load i32, ptr %14, align 4, !tbaa !27
  %15 = icmp sgt i32 %.val1217, 0
  br i1 %15, label %.lr.ph, label %.critedge

.lr.ph:                                           ; preds = %Vec_PtrAlloc.exit, %Vec_PtrPush.exit
  %indvars.iv22 = phi i64 [ %indvars.iv.next23, %Vec_PtrPush.exit ], [ 0, %Vec_PtrAlloc.exit ]
  %indvars.iv = phi i64 [ %indvars.iv.next, %Vec_PtrPush.exit ], [ 0, %Vec_PtrAlloc.exit ]
  %16 = phi i32 [ %42, %Vec_PtrPush.exit ], [ %spec.store.select.i, %Vec_PtrAlloc.exit ]
  %17 = phi ptr [ %45, %Vec_PtrPush.exit ], [ %13, %Vec_PtrAlloc.exit ]
  %18 = getelementptr i8, ptr %17, i64 8
  %.val13 = load ptr, ptr %18, align 8, !tbaa !29
  %19 = getelementptr inbounds nuw ptr, ptr %.val13, i64 %indvars.iv22
  %20 = load ptr, ptr %19, align 8, !tbaa !30
  %21 = getelementptr i8, ptr %20, i64 40
  %.val = load ptr, ptr %21, align 8, !tbaa !8
  %22 = trunc nsw i64 %indvars.iv to i32
  %23 = icmp eq i32 %16, %22
  br i1 %23, label %24, label %.Vec_PtrGrow.exit11_crit_edge.i

.Vec_PtrGrow.exit11_crit_edge.i:                  ; preds = %.lr.ph
  %.pre.i = load ptr, ptr %11, align 8, !tbaa !29
  br label %Vec_PtrPush.exit

24:                                               ; preds = %.lr.ph
  %25 = icmp samesign ult i64 %indvars.iv, 16
  %26 = load ptr, ptr %11, align 8, !tbaa !29
  %.not9.i.i = icmp eq ptr %26, null
  br i1 %25, label %27, label %33

27:                                               ; preds = %24
  br i1 %.not9.i.i, label %30, label %28

28:                                               ; preds = %27
  %29 = tail call dereferenceable_or_null(128) ptr @realloc(ptr noundef nonnull %26, i64 noundef 128) #10
  br label %Vec_PtrGrow.exit.i

30:                                               ; preds = %27
  %31 = tail call noalias dereferenceable_or_null(128) ptr @malloc(i64 noundef 128) #9
  br label %Vec_PtrGrow.exit.i

Vec_PtrGrow.exit.i:                               ; preds = %30, %28
  %32 = phi ptr [ %29, %28 ], [ %31, %30 ]
  store ptr %32, ptr %11, align 8, !tbaa !29
  br label %Vec_PtrPush.exit

33:                                               ; preds = %24
  %34 = shl nuw nsw i64 %indvars.iv, 4
  br i1 %.not9.i.i, label %37, label %35

35:                                               ; preds = %33
  %36 = tail call ptr @realloc(ptr noundef nonnull %26, i64 noundef %34) #10
  br label %39

37:                                               ; preds = %33
  %38 = tail call noalias ptr @malloc(i64 noundef %34) #9
  br label %39

39:                                               ; preds = %37, %35
  %40 = phi ptr [ %36, %35 ], [ %38, %37 ]
  store ptr %40, ptr %11, align 8, !tbaa !29
  %indvars.iv.tr = trunc i64 %indvars.iv to i32
  %41 = shl i32 %indvars.iv.tr, 1
  br label %Vec_PtrPush.exit

Vec_PtrPush.exit:                                 ; preds = %.Vec_PtrGrow.exit11_crit_edge.i, %Vec_PtrGrow.exit.i, %39
  %42 = phi i32 [ %16, %.Vec_PtrGrow.exit11_crit_edge.i ], [ %41, %39 ], [ 16, %Vec_PtrGrow.exit.i ]
  %43 = phi ptr [ %.pre.i, %.Vec_PtrGrow.exit11_crit_edge.i ], [ %40, %39 ], [ %32, %Vec_PtrGrow.exit.i ]
  %indvars.iv.next = add nuw nsw i64 %indvars.iv, 1
  %44 = getelementptr inbounds nuw ptr, ptr %43, i64 %indvars.iv
  store ptr %.val, ptr %44, align 8, !tbaa !30
  %indvars.iv.next23 = add nuw nsw i64 %indvars.iv22, 1
  %45 = load ptr, ptr %12, align 8, !tbaa !34
  %46 = getelementptr i8, ptr %45, i64 4
  %.val12 = load i32, ptr %46, align 4, !tbaa !27
  %47 = sext i32 %.val12 to i64
  %48 = icmp slt i64 %indvars.iv.next23, %47
  br i1 %48, label %.lr.ph, label %..critedge_crit_edge, !llvm.loop !35

..critedge_crit_edge:                             ; preds = %Vec_PtrPush.exit
  %49 = trunc nsw i64 %indvars.iv.next to i32
  store i32 %49, ptr %5, align 4, !tbaa !27
  store i32 %42, ptr %3, align 8
  %.val15.pre = load ptr, ptr %11, align 8, !tbaa !29
  br label %.critedge

.critedge:                                        ; preds = %..critedge_crit_edge, %Vec_PtrAlloc.exit
  %.val11 = phi i32 [ %49, %..critedge_crit_edge ], [ 0, %Vec_PtrAlloc.exit ]
  %.val15 = phi ptr [ %.val15.pre, %..critedge_crit_edge ], [ %10, %Vec_PtrAlloc.exit ]
  %50 = tail call i32 @Cudd_SharingSize(ptr noundef %.val15, i32 noundef %.val11) #8
  %.not.i16 = icmp eq ptr %.val15, null
  br i1 %.not.i16, label %Vec_PtrFree.exit, label %51

51:                                               ; preds = %.critedge
  tail call void @free(ptr noundef nonnull %.val15) #8
  br label %Vec_PtrFree.exit

Vec_PtrFree.exit:                                 ; preds = %.critedge, %51
  tail call void @free(ptr noundef nonnull %3) #8
  ret i32 %50
}